target datalayout = "e-m:e-p270:32:32-p271:32:32-p272:64:64-i64:64-i128:128-f80:128-n8:16:32:64-S128"
target triple = "x86_64-pc-linux-gnu"

; Function Attrs: nounwind uwtable
define hidden void @lexbor_str_data_to_uppercase(ptr noundef %0, ptr noundef %1, i64 noundef %2) #0 {
  %4 = alloca ptr, align 8
  %5 = alloca ptr, align 8
  %6 = alloca i64, align 8
  store ptr %0, ptr %4, align 8
  store ptr %1, ptr %5, align 8
  store i64 %2, ptr %6, align 8
  br label %7

7:                                                ; preds = %10, %3
  %8 = load i64, ptr %6, align 8
  %9 = icmp ne i64 %8, 0
  br i1 %9, label %10, label %23

10:                                               ; preds = %7
  %11 = load i64, ptr %6, align 8
  %12 = add i64 %11, -1
  store i64 %12, ptr %6, align 8
  %13 = load ptr, ptr %5, align 8
  %14 = load i64, ptr %6, align 8
  %15 = getelementptr inbounds i8, ptr %13, i64 %14
  %16 = load i8, ptr %15, align 1
  %17 = zext i8 %16 to i64
  %18 = getelementptr inbounds [256 x i8], ptr @lexbor_str_res_map_uppercase, i64 0, i64 %17
  %19 = load i8, ptr %18, align 1
  %20 = load ptr, ptr %4, align 8
  %21 = load i64, ptr %6, align 8
  %22 = getelementptr inbounds i8, ptr %20, i64 %21
  store i8 %19, ptr %22, align 1
  br label %7

23:                                               ; preds = %7
  ret void
}